target datalayout = "e-m:e-p270:32:32-p271:32:32-p272:64:64-i64:64-i128:128-f80:128-n8:16:32:64-S128"
target triple = "x86_64-pc-linux-gnu"

%struct.CLzmaDec = type { %struct._CLzmaProps, ptr, ptr, ptr, i32, i32, i64, i64, i32, i32, i32, [4 x i32], i32, i32, i32, i32, i32, [20 x i8] }
%struct._CLzmaProps = type { i32, i32, i32, i32 }

; Function Attrs: nounwind uwtable
define i32 @LzmaDec_DecodeToBuf(ptr noundef %0, ptr noundef %1, ptr noundef %2, ptr noundef %3, ptr noundef %4, i32 noundef %5, ptr noundef %6) #0 {
  %8 = alloca i32, align 4
  %9 = alloca ptr, align 8
  %10 = alloca ptr, align 8
  %11 = alloca ptr, align 8
  %12 = alloca ptr, align 8
  %13 = alloca ptr, align 8
  %14 = alloca i32, align 4
  %15 = alloca ptr, align 8
  %16 = alloca i64, align 8
  %17 = alloca i64, align 8
  %18 = alloca i64, align 8
  %19 = alloca i64, align 8
  %20 = alloca i64, align 8
  %21 = alloca i32, align 4
  %22 = alloca i32, align 4
  store ptr %0, ptr %9, align 8
  store ptr %1, ptr %10, align 8
  store ptr %2, ptr %11, align 8
  store ptr %3, ptr %12, align 8
  store ptr %4, ptr %13, align 8
  store i32 %5, ptr %14, align 4
  store ptr %6, ptr %15, align 8
  %23 = load ptr, ptr %11, align 8
  %24 = load i64, ptr %23, align 8
  store i64 %24, ptr %16, align 8
  %25 = load ptr, ptr %13, align 8
  %26 = load i64, ptr %25, align 8
  store i64 %26, ptr %17, align 8
  %27 = load ptr, ptr %11, align 8
  store i64 0, ptr %27, align 8
  %28 = load ptr, ptr %13, align 8
  store i64 0, ptr %28, align 8
  br label %29

29:                                               ; preds = %111, %7
  %30 = load i64, ptr %17, align 8
  store i64 %30, ptr %18, align 8
  %31 = load ptr, ptr %9, align 8
  %32 = getelementptr inbounds %struct.CLzmaDec, ptr %31, i32 0, i32 6
  %33 = load i64, ptr %32, align 8
  %34 = load ptr, ptr %9, align 8
  %35 = getelementptr inbounds %struct.CLzmaDec, ptr %34, i32 0, i32 7
  %36 = load i64, ptr %35, align 8
  %37 = icmp eq i64 %33, %36
  br i1 %37, label %38, label %41

38:                                               ; preds = %29
  %39 = load ptr, ptr %9, align 8
  %40 = getelementptr inbounds %struct.CLzmaDec, ptr %39, i32 0, i32 6
  store i64 0, ptr %40, align 8
  br label %41

41:                                               ; preds = %38, %29
  %42 = load ptr, ptr %9, align 8
  %43 = getelementptr inbounds %struct.CLzmaDec, ptr %42, i32 0, i32 6
  %44 = load i64, ptr %43, align 8
  store i64 %44, ptr %20, align 8
  %45 = load i64, ptr %16, align 8
  %46 = load ptr, ptr %9, align 8
  %47 = getelementptr inbounds %struct.CLzmaDec, ptr %46, i32 0, i32 7
  %48 = load i64, ptr %47, align 8
  %49 = load i64, ptr %20, align 8
  %50 = sub i64 %48, %49
  %51 = icmp ugt i64 %45, %50
  br i1 %51, label %52, label %56

52:                                               ; preds = %41
  %53 = load ptr, ptr %9, align 8
  %54 = getelementptr inbounds %struct.CLzmaDec, ptr %53, i32 0, i32 7
  %55 = load i64, ptr %54, align 8
  store i64 %55, ptr %19, align 8
  store i32 0, ptr %21, align 4
  br label %61

56:                                               ; preds = %41
  %57 = load i64, ptr %20, align 8
  %58 = load i64, ptr %16, align 8
  %59 = add i64 %57, %58
  store i64 %59, ptr %19, align 8
  %60 = load i32, ptr %14, align 4
  store i32 %60, ptr %21, align 4
  br label %61

61:                                               ; preds = %56, %52
  %62 = load ptr, ptr %9, align 8
  %63 = load i64, ptr %19, align 8
  %64 = load ptr, ptr %12, align 8
  %65 = load i32, ptr %21, align 4
  %66 = load ptr, ptr %15, align 8
  %67 = call i32 @LzmaDec_DecodeToDic(ptr noundef %62, i64 noundef %63, ptr noundef %64, ptr noundef %18, i32 noundef %65, ptr noundef %66)
  store i32 %67, ptr %22, align 4
  %68 = load i64, ptr %18, align 8
  %69 = load ptr, ptr %12, align 8
  %70 = getelementptr inbounds i8, ptr %69, i64 %68
  store ptr %70, ptr %12, align 8
  %71 = load i64, ptr %18, align 8
  %72 = load i64, ptr %17, align 8
  %73 = sub i64 %72, %71
  store i64 %73, ptr %17, align 8
  %74 = load i64, ptr %18, align 8
  %75 = load ptr, ptr %13, align 8
  %76 = load i64, ptr %75, align 8
  %77 = add i64 %76, %74
  store i64 %77, ptr %75, align 8
  %78 = load ptr, ptr %9, align 8
  %79 = getelementptr inbounds %struct.CLzmaDec, ptr %78, i32 0, i32 6
  %80 = load i64, ptr %79, align 8
  %81 = load i64, ptr %20, align 8
  %82 = sub i64 %80, %81
  store i64 %82, ptr %19, align 8
  %83 = load ptr, ptr %10, align 8
  %84 = load ptr, ptr %9, align 8
  %85 = getelementptr inbounds %struct.CLzmaDec, ptr %84, i32 0, i32 2
  %86 = load ptr, ptr %85, align 8
  %87 = load i64, ptr %20, align 8
  %88 = getelementptr inbounds i8, ptr %86, i64 %87
  %89 = load i64, ptr %19, align 8
  call void @llvm.memcpy.p0.p0.i64(ptr align 1 %83, ptr align 1 %88, i64 %89, i1 false)
  %90 = load i64, ptr %19, align 8
  %91 = load ptr, ptr %10, align 8
  %92 = getelementptr inbounds i8, ptr %91, i64 %90
  store ptr %92, ptr %10, align 8
  %93 = load i64, ptr %19, align 8
  %94 = load i64, ptr %16, align 8
  %95 = sub i64 %94, %93
  store i64 %95, ptr %16, align 8
  %96 = load i64, ptr %19, align 8
  %97 = load ptr, ptr %11, align 8
  %98 = load i64, ptr %97, align 8
  %99 = add i64 %98, %96
  store i64 %99, ptr %97, align 8
  %100 = load i32, ptr %22, align 4
  %101 = icmp ne i32 %100, 0
  br i1 %101, label %102, label %104

102:                                              ; preds = %61
  %103 = load i32, ptr %22, align 4
  store i32 %103, ptr %8, align 4
  br label %112

104:                                              ; preds = %61
  %105 = load i64, ptr %19, align 8
  %106 = icmp eq i64 %105, 0
  br i1 %106, label %110, label %107

107:                                              ; preds = %104
  %108 = load i64, ptr %16, align 8
  %109 = icmp eq i64 %108, 0
  br i1 %109, label %110, label %111

110:                                              ; preds = %107, %104
  store i32 0, ptr %8, align 4
  br label %112

111:                                              ; preds = %107
  br label %29

112:                                              ; preds = %110, %102
  %113 = load i32, ptr %8, align 4
  ret i32 %113
}