; Function Attrs: nofree norecurse nosync nounwind memory(readwrite, inaccessiblemem: none) uwtable
define noundef i32 @LzmaDec_DecodeToBuf(ptr noundef %0, ptr nocapture noundef writeonly %1, ptr nocapture noundef %2, ptr noundef %3, ptr nocapture noundef %4, i32 noundef %5, ptr nocapture noundef writeonly %6) local_unnamed_addr #1 {
  %8 = alloca i64, align 8
  %9 = load i64, ptr %2, align 8
  %10 = load i64, ptr %4, align 8
  store i64 0, ptr %2, align 8
  store i64 0, ptr %4, align 8
  %11 = getelementptr inbounds i8, ptr %0, i64 48
  %12 = getelementptr inbounds i8, ptr %0, i64 56
  %13 = getelementptr inbounds i8, ptr %0, i64 24
  br label %14

14:                                               ; preds = %34, %7
  %.046 = phi ptr [ %3, %7 ], [ %38, %34 ]
  %.045 = phi i64 [ %9, %7 ], [ %35, %34 ]
  %.044 = phi i64 [ %10, %7 ], [ %37, %34 ]
  %.042 = phi ptr [ %1, %7 ], [ %36, %34 ]
  store i64 %.044, ptr %8, align 8
  %15 = load i64, ptr %11, align 8
  %16 = load i64, ptr %12, align 8
  %17 = icmp eq i64 %15, %16
  br i1 %17, label %18, label %19

18:                                               ; preds = %14
  store i64 0, ptr %11, align 8
  br label %19

19:                                               ; preds = %18, %14
  %20 = phi i64 [ 0, %18 ], [ %15, %14 ]
  %21 = sub i64 %16, %20
  %22 = icmp ugt i64 %.045, %21
  %23 = add i64 %20, %.045
  %.043 = select i1 %22, i64 %16, i64 %23
  %.041 = select i1 %22, i32 0, i32 %5
  %24 = call i32 @LzmaDec_DecodeToDic(ptr noundef nonnull %0, i64 noundef %.043, ptr noundef %.046, ptr noundef nonnull %8, i32 noundef %.041, ptr noundef %6), !range !5
  %25 = load i64, ptr %8, align 8
  %26 = load i64, ptr %4, align 8
  %27 = add i64 %26, %25
  store i64 %27, ptr %4, align 8
  %28 = load i64, ptr %11, align 8
  %29 = sub i64 %28, %20
  %30 = load ptr, ptr %13, align 8
  %31 = getelementptr inbounds i8, ptr %30, i64 %20
  tail call void @llvm.memcpy.p0.p0.i64(ptr align 1 %.042, ptr align 1 %31, i64 %29, i1 false)
  %32 = load i64, ptr %2, align 8
  %33 = add i64 %32, %29
  store i64 %33, ptr %2, align 8
  %.not = icmp eq i32 %24, 0
  br i1 %.not, label %34, label %41

34:                                               ; preds = %19
  %35 = sub i64 %.045, %29
  %36 = getelementptr inbounds i8, ptr %.042, i64 %29
  %37 = sub i64 %.044, %25
  %38 = getelementptr inbounds i8, ptr %.046, i64 %25
  %39 = icmp eq i64 %28, %20
  %40 = icmp eq i64 %35, 0
  %or.cond = select i1 %39, i1 true, i1 %40
  br i1 %or.cond, label %41, label %14

41:                                               ; preds = %34, %19
  %.0 = phi i32 [ 1, %19 ], [ 0, %34 ]
  ret i32 %.0
}